target datalayout = "e-m:e-p270:32:32-p271:32:32-p272:64:64-i64:64-i128:128-f80:128-n8:16:32:64-S128"
target triple = "x86_64-pc-linux-gnu"

%struct.rb_code_location_struct = type { %struct.rb_code_position_struct, %struct.rb_code_position_struct }
%struct.rb_code_position_struct = type { i32, i32 }
%struct.lex_context = type { i16, [2 x i8] }
%struct.parser_params = type { ptr, ptr, %struct.anon.12, i64, i64, i32, i32, i32, i32, i32, ptr, ptr, ptr, ptr, i32, i32, ptr, i64, ptr, ptr, ptr, ptr, i64, i64, %struct.anon.13, ptr, i32, ptr, i32, i64, %struct.lex_context, ptr, ptr, ptr, i32, i64, ptr, ptr, i32, ptr }
%struct.anon.12 = type { ptr, ptr, ptr, %struct.parser_string_buffer, ptr, ptr, ptr, ptr, ptr, ptr, i32, i32, i32, i32 }
%struct.parser_string_buffer = type { ptr, ptr }
%struct.anon.13 = type { ptr, i32, i32, i32, i32 }
%struct.OnigEncodingTypeST = type { ptr, ptr, i32, i32, ptr, ptr, ptr, ptr, ptr, ptr, ptr, ptr, ptr, ptr, ptr, ptr, ptr, i32, i32 }

@.str.799 = private unnamed_addr constant [26 x i8] c"%s mixed within %s source\00", align 1

; Function Attrs: inlinehint nounwind sspstrong uwtable
define internal void @parser_show_error_line(ptr noundef %0, ptr noundef %1) #2 {
  %3 = alloca ptr, align 8
  %4 = alloca ptr, align 8
  %5 = alloca ptr, align 8
  %6 = alloca i32, align 4
  %7 = alloca i32, align 4
  store ptr %0, ptr %3, align 8, !tbaa !7
  store ptr %1, ptr %4, align 8, !tbaa !39
  call void @llvm.lifetime.start.p0(i64 8, ptr %5) #26
  call void @llvm.lifetime.start.p0(i64 4, ptr %6) #26
  %8 = load ptr, ptr %3, align 8, !tbaa !7
  %9 = getelementptr inbounds nuw %struct.parser_params, ptr %8, i32 0, i32 15
  %10 = load i32, ptr %9, align 4, !tbaa !82
  store i32 %10, ptr %6, align 4, !tbaa !34
  %11 = load ptr, ptr %4, align 8, !tbaa !39
  %12 = icmp ne ptr %11, null
  br i1 %12, label %14, label %13

13:                                               ; preds = %2
  store i32 1, ptr %7, align 4
  br label %36

14:                                               ; preds = %2
  %15 = load ptr, ptr %4, align 8, !tbaa !39
  %16 = getelementptr inbounds nuw %struct.rb_code_location_struct, ptr %15, i32 0, i32 0
  %17 = getelementptr inbounds nuw %struct.rb_code_position_struct, ptr %16, i32 0, i32 0
  %18 = load i32, ptr %17, align 4, !tbaa !173
  %19 = load i32, ptr %6, align 4, !tbaa !34
  %20 = icmp eq i32 %18, %19
  br i1 %20, label %21, label %26

21:                                               ; preds = %14
  %22 = load ptr, ptr %3, align 8, !tbaa !7
  %23 = getelementptr inbounds nuw %struct.parser_params, ptr %22, i32 0, i32 2
  %24 = getelementptr inbounds nuw %struct.anon.12, ptr %23, i32 0, i32 4
  %25 = load ptr, ptr %24, align 8, !tbaa !590
  store ptr %25, ptr %5, align 8, !tbaa !14
  br label %27

26:                                               ; preds = %14
  store i32 1, ptr %7, align 4
  br label %36

27:                                               ; preds = %21
  br label %28

28:                                               ; preds = %27
  %29 = load ptr, ptr %3, align 8, !tbaa !7
  %30 = load ptr, ptr %3, align 8, !tbaa !7
  %31 = getelementptr inbounds nuw %struct.parser_params, ptr %30, i32 0, i32 35
  %32 = load i64, ptr %31, align 8, !tbaa !453
  %33 = load ptr, ptr %4, align 8, !tbaa !39
  %34 = load i32, ptr %6, align 4, !tbaa !34
  %35 = load ptr, ptr %5, align 8, !tbaa !14
  call void @ruby_show_error_line(ptr noundef %29, i64 noundef %32, ptr noundef %33, i32 noundef %34, ptr noundef %35)
  store i32 0, ptr %7, align 4
  br label %36

36:                                               ; preds = %28, %26, %13
  call void @llvm.lifetime.end.p0(i64 4, ptr %6) #26
  call void @llvm.lifetime.end.p0(i64 8, ptr %5) #26
  %37 = load i32, ptr %7, align 4
  switch i32 %37, label %39 [
    i32 0, label %38
    i32 1, label %38
  ]

38:                                               ; preds = %36, %36
  ret void

39:                                               ; preds = %36
  unreachable
}

; Function Attrs: inlinehint nounwind sspstrong uwtable
define internal ptr @rb_enc_name(ptr noundef %0) #2 {
  %2 = alloca ptr, align 8
  store ptr %0, ptr %2, align 8, !tbaa !21
  %3 = load ptr, ptr %2, align 8, !tbaa !21
  %4 = getelementptr inbounds nuw %struct.OnigEncodingTypeST, ptr %3, i32 0, i32 1
  %5 = load ptr, ptr %4, align 8, !tbaa !643
  ret ptr %5
}

; Function Attrs: nounwind sspstrong uwtable
define internal void @parser_mixed_error(ptr noundef %0, ptr noundef %1, ptr noundef %2) #0 {
  %4 = alloca ptr, align 8
  %5 = alloca ptr, align 8
  %6 = alloca ptr, align 8
  %7 = alloca %struct.rb_code_location_struct, align 4
  %8 = alloca ptr, align 8
  %9 = alloca ptr, align 8
  store ptr %0, ptr %4, align 8, !tbaa !7
  store ptr %1, ptr %5, align 8, !tbaa !21
  store ptr %2, ptr %6, align 8, !tbaa !21
  call void @llvm.lifetime.start.p0(i64 16, ptr %7) #26
  %10 = getelementptr inbounds nuw %struct.rb_code_location_struct, ptr %7, i32 0, i32 0
  %11 = getelementptr inbounds nuw %struct.rb_code_position_struct, ptr %10, i32 0, i32 0
  %12 = load ptr, ptr %4, align 8, !tbaa !7
  %13 = getelementptr inbounds nuw %struct.parser_params, ptr %12, i32 0, i32 15
  %14 = load i32, ptr %13, align 4, !tbaa !82
  store i32 %14, ptr %11, align 4, !tbaa !461
  %15 = getelementptr inbounds nuw %struct.rb_code_position_struct, ptr %10, i32 0, i32 1
  %16 = load ptr, ptr %4, align 8, !tbaa !7
  %17 = getelementptr inbounds nuw %struct.parser_params, ptr %16, i32 0, i32 2
  %18 = getelementptr inbounds nuw %struct.anon.12, ptr %17, i32 0, i32 9
  %19 = load ptr, ptr %18, align 8, !tbaa !127
  %20 = load ptr, ptr %4, align 8, !tbaa !7
  %21 = getelementptr inbounds nuw %struct.parser_params, ptr %20, i32 0, i32 2
  %22 = getelementptr inbounds nuw %struct.anon.12, ptr %21, i32 0, i32 6
  %23 = load ptr, ptr %22, align 8, !tbaa !128
  %24 = ptrtoint ptr %19 to i64
  %25 = ptrtoint ptr %23 to i64
  %26 = sub i64 %24, %25
  %27 = trunc i64 %26 to i32
  store i32 %27, ptr %15, align 4, !tbaa !462
  %28 = getelementptr inbounds nuw %struct.rb_code_location_struct, ptr %7, i32 0, i32 1
  %29 = getelementptr inbounds nuw %struct.rb_code_position_struct, ptr %28, i32 0, i32 0
  %30 = load ptr, ptr %4, align 8, !tbaa !7
  %31 = getelementptr inbounds nuw %struct.parser_params, ptr %30, i32 0, i32 15
  %32 = load i32, ptr %31, align 4, !tbaa !82
  store i32 %32, ptr %29, align 4, !tbaa !461
  %33 = getelementptr inbounds nuw %struct.rb_code_position_struct, ptr %28, i32 0, i32 1
  %34 = load ptr, ptr %4, align 8, !tbaa !7
  %35 = getelementptr inbounds nuw %struct.parser_params, ptr %34, i32 0, i32 2
  %36 = getelementptr inbounds nuw %struct.anon.12, ptr %35, i32 0, i32 7
  %37 = load ptr, ptr %36, align 8, !tbaa !161
  %38 = load ptr, ptr %4, align 8, !tbaa !7
  %39 = getelementptr inbounds nuw %struct.parser_params, ptr %38, i32 0, i32 2
  %40 = getelementptr inbounds nuw %struct.anon.12, ptr %39, i32 0, i32 6
  %41 = load ptr, ptr %40, align 8, !tbaa !128
  %42 = ptrtoint ptr %37 to i64
  %43 = ptrtoint ptr %41 to i64
  %44 = sub i64 %42, %43
  %45 = trunc i64 %44 to i32
  store i32 %45, ptr %33, align 4, !tbaa !462
  call void @llvm.lifetime.start.p0(i64 8, ptr %8) #26
  %46 = load ptr, ptr %5, align 8, !tbaa !21
  %47 = call ptr @rb_enc_name(ptr noundef %46)
  store ptr %47, ptr %8, align 8, !tbaa !19
  call void @llvm.lifetime.start.p0(i64 8, ptr %9) #26
  %48 = load ptr, ptr %6, align 8, !tbaa !21
  %49 = call ptr @rb_enc_name(ptr noundef %48)
  store ptr %49, ptr %9, align 8, !tbaa !19
  %50 = load ptr, ptr %4, align 8, !tbaa !7
  %51 = load ptr, ptr %8, align 8, !tbaa !19
  %52 = load ptr, ptr %9, align 8, !tbaa !19
  call void (ptr, ptr, ptr, ...) @parser_compile_error(ptr noundef %50, ptr noundef null, ptr noundef @.str.799, ptr noundef %51, ptr noundef %52)
  %53 = load ptr, ptr %4, align 8, !tbaa !7
  call void @parser_show_error_line(ptr noundef %53, ptr noundef %7)
  call void @llvm.lifetime.end.p0(i64 8, ptr %9) #26
  call void @llvm.lifetime.end.p0(i64 8, ptr %8) #26
  call void @llvm.lifetime.end.p0(i64 16, ptr %7) #26
  ret void
}

; Function Attrs: nounwind sspstrong uwtable
define internal void @parser_mixed_escape(ptr noundef %0, ptr noundef %1, ptr noundef %2, ptr noundef %3) #0 {
  %5 = alloca ptr, align 8
  %6 = alloca ptr, align 8
  %7 = alloca ptr, align 8
  %8 = alloca ptr, align 8
  %9 = alloca ptr, align 8
  store ptr %0, ptr %5, align 8, !tbaa !7
  store ptr %1, ptr %6, align 8, !tbaa !19
  store ptr %2, ptr %7, align 8, !tbaa !21
  store ptr %3, ptr %8, align 8, !tbaa !21
  call void @llvm.lifetime.start.p0(i64 8, ptr %9) #26
  %10 = load ptr, ptr %5, align 8, !tbaa !7
  %11 = getelementptr inbounds nuw %struct.parser_params, ptr %10, i32 0, i32 2
  %12 = getelementptr inbounds nuw %struct.anon.12, ptr %11, i32 0, i32 7
  %13 = load ptr, ptr %12, align 8, !tbaa !161
  store ptr %13, ptr %9, align 8, !tbaa !19
  %14 = load ptr, ptr %6, align 8, !tbaa !19
  %15 = load ptr, ptr %5, align 8, !tbaa !7
  %16 = getelementptr inbounds nuw %struct.parser_params, ptr %15, i32 0, i32 2
  %17 = getelementptr inbounds nuw %struct.anon.12, ptr %16, i32 0, i32 7
  store ptr %14, ptr %17, align 8, !tbaa !161
  %18 = load ptr, ptr %5, align 8, !tbaa !7
  %19 = load ptr, ptr %7, align 8, !tbaa !21
  %20 = load ptr, ptr %8, align 8, !tbaa !21
  call void @parser_mixed_error(ptr noundef %18, ptr noundef %19, ptr noundef %20)
  %21 = load ptr, ptr %9, align 8, !tbaa !19
  %22 = load ptr, ptr %5, align 8, !tbaa !7
  %23 = getelementptr inbounds nuw %struct.parser_params, ptr %22, i32 0, i32 2
  %24 = getelementptr inbounds nuw %struct.anon.12, ptr %23, i32 0, i32 7
  store ptr %21, ptr %24, align 8, !tbaa !161
  call void @llvm.lifetime.end.p0(i64 8, ptr %9) #26
  ret void
}