; Function Attrs: nounwind sspstrong uwtable
define internal fastcc void @parser_mixed_escape(ptr noundef captures(none) %0, ptr noundef %1, ptr %.8.val, ptr %.8.val1) unnamed_addr #0 {
  %3 = alloca %struct.rb_code_location_struct, align 4
  %4 = getelementptr inbounds nuw i8, ptr %0, i64 80
  %5 = load ptr, ptr %4, align 8, !tbaa !184
  store ptr %1, ptr %4, align 8, !tbaa !184
  call void @llvm.lifetime.start.p0(i64 16, ptr nonnull %3) #35
  %6 = getelementptr inbounds nuw i8, ptr %0, i64 196
  %7 = load i32, ptr %6, align 4, !tbaa !31
  store i32 %7, ptr %3, align 4, !tbaa !526
  %8 = getelementptr inbounds nuw i8, ptr %3, i64 4
  %9 = getelementptr inbounds nuw i8, ptr %0, i64 96
  %10 = load ptr, ptr %9, align 8, !tbaa !51
  %11 = getelementptr inbounds nuw i8, ptr %0, i64 72
  %12 = load ptr, ptr %11, align 8, !tbaa !52
  %13 = ptrtoint ptr %10 to i64
  %14 = ptrtoint ptr %12 to i64
  %15 = sub i64 %13, %14
  %16 = trunc i64 %15 to i32
  store i32 %16, ptr %8, align 4, !tbaa !527
  %17 = getelementptr inbounds nuw i8, ptr %3, i64 8
  store i32 %7, ptr %17, align 4, !tbaa !526
  %18 = getelementptr inbounds nuw i8, ptr %3, i64 12
  %19 = ptrtoint ptr %1 to i64
  %20 = sub i64 %19, %14
  %21 = trunc i64 %20 to i32
  store i32 %21, ptr %18, align 4, !tbaa !527
  tail call void (ptr, ptr, ptr, ...) @parser_compile_error(ptr noundef %0, ptr noundef null, ptr noundef nonnull @.str.799, ptr noundef %.8.val, ptr noundef %.8.val1)
  %22 = load i32, ptr %6, align 4, !tbaa !31
  %23 = icmp eq i32 %7, %22
  br i1 %23, label %24, label %parser_mixed_error.exit

24:                                               ; preds = %2
  %25 = getelementptr inbounds nuw i8, ptr %0, i64 56
  %26 = load ptr, ptr %25, align 8, !tbaa !185
  %27 = getelementptr inbounds nuw i8, ptr %0, i64 368
  %28 = load i64, ptr %27, align 8, !tbaa !186
  call void @ruby_show_error_line(ptr nonnull readonly poison, i64 noundef %28, ptr noundef nonnull %3, i32 noundef %7, ptr noundef %26)
  br label %parser_mixed_error.exit

parser_mixed_error.exit:                          ; preds = %2, %24
  call void @llvm.lifetime.end.p0(i64 16, ptr nonnull %3) #35
  store ptr %5, ptr %4, align 8, !tbaa !184
  ret void
}